; Function Attrs: nounwind uwtable
define hidden void @malloc_mutex_prefork(ptr noundef %tsdn, ptr noundef %mutex) local_unnamed_addr #0 {
entry:
  %lock.i.i = getelementptr inbounds i8, ptr %mutex, i64 64
  %call.i.i = tail call i32 @pthread_mutex_trylock(ptr noundef nonnull %lock.i.i) #7
  %cmp.i.not.i = icmp eq i32 %call.i.i, 0
  br i1 %cmp.i.not.i, label %if.end.i, label %if.then.i

if.then.i:                                        ; preds = %entry
  tail call void @malloc_mutex_lock_slow(ptr noundef %mutex)
  %locked.i = getelementptr inbounds i8, ptr %mutex, i64 104
  store atomic i8 1, ptr %locked.i monotonic, align 1
  br label %if.end.i

if.end.i:                                         ; preds = %if.then.i, %entry
  %n_lock_ops.i.i = getelementptr inbounds i8, ptr %mutex, i64 56
  %0 = load i64, ptr %n_lock_ops.i.i, align 8
  %inc.i.i = add i64 %0, 1
  store i64 %inc.i.i, ptr %n_lock_ops.i.i, align 8
  %prev_owner.i.i = getelementptr inbounds i8, ptr %mutex, i64 48
  %1 = load ptr, ptr %prev_owner.i.i, align 8
  %cmp.not.i.i = icmp eq ptr %1, %tsdn
  br i1 %cmp.not.i.i, label %malloc_mutex_lock.exit, label %if.then.i.i

if.then.i.i:                                      ; preds = %if.end.i
  store ptr %tsdn, ptr %prev_owner.i.i, align 8
  %n_owner_switches.i.i = getelementptr inbounds i8, ptr %mutex, i64 40
  %2 = load i64, ptr %n_owner_switches.i.i, align 8
  %inc2.i.i = add i64 %2, 1
  store i64 %inc2.i.i, ptr %n_owner_switches.i.i, align 8
  br label %malloc_mutex_lock.exit

malloc_mutex_lock.exit:                           ; preds = %if.end.i, %if.then.i.i
  ret void
}